target datalayout = "e-m:e-p270:32:32-p271:32:32-p272:64:64-i64:64-i128:128-f80:128-n8:16:32:64-S128"
target triple = "x86_64-pc-linux-gnu"

@hf_rdm_pd_preset_info_level_field_supported = internal global i32 0, align 4
@hf_rdm_pd_preset_info_preset_sequence_supported = internal global i32 0, align 4
@hf_rdm_pd_preset_info_split_times_supported = internal global i32 0, align 4
@hf_rdm_pd_preset_info_dmx_fail_infinite_delay_time_supported = internal global i32 0, align 4
@hf_rdm_pd_preset_info_dmx_fail_infinite_hold_time_supported = internal global i32 0, align 4
@hf_rdm_pd_preset_info_start_up_infinite_hold_time_supported = internal global i32 0, align 4
@hf_rdm_pd_preset_info_maximum_scene_number = internal global i32 0, align 4
@hf_rdm_pd_preset_info_minimum_preset_fade_time_supported = internal global i32 0, align 4
@hf_rdm_pd_preset_info_maximum_preset_fade_time_supported = internal global i32 0, align 4
@hf_rdm_pd_preset_info_minimum_preset_wait_time_supported = internal global i32 0, align 4
@hf_rdm_pd_preset_info_maximum_preset_wait_time_supported = internal global i32 0, align 4
@hf_rdm_pd_preset_info_minimum_dmx_fail_delay_time_supported = internal global i32 0, align 4
@hf_rdm_pd_preset_info_maximum_dmx_fail_delay_time_supported = internal global i32 0, align 4
@hf_rdm_pd_preset_info_minimum_dmx_fail_hold_time_supported = internal global i32 0, align 4
@hf_rdm_pd_preset_info_maximum_dmx_fail_hold_time_supported = internal global i32 0, align 4
@hf_rdm_pd_preset_info_minimum_start_up_delay_time_supported = internal global i32 0, align 4
@hf_rdm_pd_preset_info_maximum_start_up_delay_time_supported = internal global i32 0, align 4
@hf_rdm_pd_preset_info_minimum_start_up_hold_time_supported = internal global i32 0, align 4
@hf_rdm_pd_preset_info_maximum_start_up_hold_time_supported = internal global i32 0, align 4

; Function Attrs: null_pointer_is_valid sspstrong uwtable
define internal void @rdm_proto_tree_add_numeric_item(ptr noundef %0, i32 noundef %1, ptr noundef %2, ptr noundef %3, i8 noundef zeroext %4) #1 {
  %6 = alloca ptr, align 8
  %7 = alloca i32, align 4
  %8 = alloca ptr, align 8
  %9 = alloca ptr, align 8
  %10 = alloca i8, align 1
  %11 = alloca i32, align 4
  store ptr %0, ptr %6, align 8
  store i32 %1, ptr %7, align 4
  store ptr %2, ptr %8, align 8
  store ptr %3, ptr %9, align 8
  store i8 %4, ptr %10, align 1
  call void @llvm.lifetime.start.p0(i64 4, ptr %11) #4
  %12 = load ptr, ptr %9, align 8
  %13 = load i32, ptr %12, align 4
  store i32 %13, ptr %11, align 4
  %14 = load ptr, ptr %6, align 8
  %15 = load i32, ptr %7, align 4
  %16 = load ptr, ptr %8, align 8
  %17 = load i32, ptr %11, align 4
  %18 = load i8, ptr %10, align 1
  %19 = zext i8 %18 to i32
  %20 = call ptr @proto_tree_add_item(ptr noundef %14, i32 noundef %15, ptr noundef %16, i32 noundef %17, i32 noundef %19, i32 noundef 0)
  %21 = load i8, ptr %10, align 1
  %22 = zext i8 %21 to i32
  %23 = load ptr, ptr %9, align 8
  %24 = load i32, ptr %23, align 4
  %25 = add i32 %24, %22
  store i32 %25, ptr %23, align 4
  call void @llvm.lifetime.end.p0(i64 4, ptr %11) #4
  ret void
}

; Function Attrs: null_pointer_is_valid sspstrong uwtable
define internal i32 @dissect_rdm_pd_preset_info(ptr noundef %0, i32 noundef %1, ptr noundef %2, i8 noundef zeroext %3) #1 {
  %5 = alloca ptr, align 8
  %6 = alloca i32, align 4
  %7 = alloca ptr, align 8
  %8 = alloca i8, align 1
  store ptr %0, ptr %5, align 8
  store i32 %1, ptr %6, align 4
  store ptr %2, ptr %7, align 8
  store i8 %3, ptr %8, align 1
  %9 = load i8, ptr %8, align 1
  %10 = zext i8 %9 to i32
  switch i32 %10, label %69 [
    i32 33, label %11
  ]

11:                                               ; preds = %4
  %12 = load ptr, ptr %7, align 8
  %13 = load i32, ptr @hf_rdm_pd_preset_info_level_field_supported, align 4
  %14 = load ptr, ptr %5, align 8
  call void @rdm_proto_tree_add_numeric_item(ptr noundef %12, i32 noundef %13, ptr noundef %14, ptr noundef %6, i8 noundef zeroext 1)
  %15 = load ptr, ptr %7, align 8
  %16 = load i32, ptr @hf_rdm_pd_preset_info_preset_sequence_supported, align 4
  %17 = load ptr, ptr %5, align 8
  call void @rdm_proto_tree_add_numeric_item(ptr noundef %15, i32 noundef %16, ptr noundef %17, ptr noundef %6, i8 noundef zeroext 1)
  %18 = load ptr, ptr %7, align 8
  %19 = load i32, ptr @hf_rdm_pd_preset_info_split_times_supported, align 4
  %20 = load ptr, ptr %5, align 8
  call void @rdm_proto_tree_add_numeric_item(ptr noundef %18, i32 noundef %19, ptr noundef %20, ptr noundef %6, i8 noundef zeroext 1)
  %21 = load ptr, ptr %7, align 8
  %22 = load i32, ptr @hf_rdm_pd_preset_info_dmx_fail_infinite_delay_time_supported, align 4
  %23 = load ptr, ptr %5, align 8
  call void @rdm_proto_tree_add_numeric_item(ptr noundef %21, i32 noundef %22, ptr noundef %23, ptr noundef %6, i8 noundef zeroext 1)
  %24 = load ptr, ptr %7, align 8
  %25 = load i32, ptr @hf_rdm_pd_preset_info_dmx_fail_infinite_hold_time_supported, align 4
  %26 = load ptr, ptr %5, align 8
  call void @rdm_proto_tree_add_numeric_item(ptr noundef %24, i32 noundef %25, ptr noundef %26, ptr noundef %6, i8 noundef zeroext 1)
  %27 = load ptr, ptr %7, align 8
  %28 = load i32, ptr @hf_rdm_pd_preset_info_start_up_infinite_hold_time_supported, align 4
  %29 = load ptr, ptr %5, align 8
  call void @rdm_proto_tree_add_numeric_item(ptr noundef %27, i32 noundef %28, ptr noundef %29, ptr noundef %6, i8 noundef zeroext 1)
  %30 = load ptr, ptr %7, align 8
  %31 = load i32, ptr @hf_rdm_pd_preset_info_maximum_scene_number, align 4
  %32 = load ptr, ptr %5, align 8
  call void @rdm_proto_tree_add_numeric_item(ptr noundef %30, i32 noundef %31, ptr noundef %32, ptr noundef %6, i8 noundef zeroext 2)
  %33 = load ptr, ptr %7, align 8
  %34 = load i32, ptr @hf_rdm_pd_preset_info_minimum_preset_fade_time_supported, align 4
  %35 = load ptr, ptr %5, align 8
  call void @rdm_proto_tree_add_numeric_item(ptr noundef %33, i32 noundef %34, ptr noundef %35, ptr noundef %6, i8 noundef zeroext 2)
  %36 = load ptr, ptr %7, align 8
  %37 = load i32, ptr @hf_rdm_pd_preset_info_maximum_preset_fade_time_supported, align 4
  %38 = load ptr, ptr %5, align 8
  call void @rdm_proto_tree_add_numeric_item(ptr noundef %36, i32 noundef %37, ptr noundef %38, ptr noundef %6, i8 noundef zeroext 2)
  %39 = load ptr, ptr %7, align 8
  %40 = load i32, ptr @hf_rdm_pd_preset_info_minimum_preset_wait_time_supported, align 4
  %41 = load ptr, ptr %5, align 8
  call void @rdm_proto_tree_add_numeric_item(ptr noundef %39, i32 noundef %40, ptr noundef %41, ptr noundef %6, i8 noundef zeroext 2)
  %42 = load ptr, ptr %7, align 8
  %43 = load i32, ptr @hf_rdm_pd_preset_info_maximum_preset_wait_time_supported, align 4
  %44 = load ptr, ptr %5, align 8
  call void @rdm_proto_tree_add_numeric_item(ptr noundef %42, i32 noundef %43, ptr noundef %44, ptr noundef %6, i8 noundef zeroext 2)
  %45 = load ptr, ptr %7, align 8
  %46 = load i32, ptr @hf_rdm_pd_preset_info_minimum_dmx_fail_delay_time_supported, align 4
  %47 = load ptr, ptr %5, align 8
  call void @rdm_proto_tree_add_numeric_item(ptr noundef %45, i32 noundef %46, ptr noundef %47, ptr noundef %6, i8 noundef zeroext 2)
  %48 = load ptr, ptr %7, align 8
  %49 = load i32, ptr @hf_rdm_pd_preset_info_maximum_dmx_fail_delay_time_supported, align 4
  %50 = load ptr, ptr %5, align 8
  call void @rdm_proto_tree_add_numeric_item(ptr noundef %48, i32 noundef %49, ptr noundef %50, ptr noundef %6, i8 noundef zeroext 2)
  %51 = load ptr, ptr %7, align 8
  %52 = load i32, ptr @hf_rdm_pd_preset_info_minimum_dmx_fail_hold_time_supported, align 4
  %53 = load ptr, ptr %5, align 8
  call void @rdm_proto_tree_add_numeric_item(ptr noundef %51, i32 noundef %52, ptr noundef %53, ptr noundef %6, i8 noundef zeroext 2)
  %54 = load ptr, ptr %7, align 8
  %55 = load i32, ptr @hf_rdm_pd_preset_info_maximum_dmx_fail_hold_time_supported, align 4
  %56 = load ptr, ptr %5, align 8
  call void @rdm_proto_tree_add_numeric_item(ptr noundef %54, i32 noundef %55, ptr noundef %56, ptr noundef %6, i8 noundef zeroext 2)
  %57 = load ptr, ptr %7, align 8
  %58 = load i32, ptr @hf_rdm_pd_preset_info_minimum_start_up_delay_time_supported, align 4
  %59 = load ptr, ptr %5, align 8
  call void @rdm_proto_tree_add_numeric_item(ptr noundef %57, i32 noundef %58, ptr noundef %59, ptr noundef %6, i8 noundef zeroext 2)
  %60 = load ptr, ptr %7, align 8
  %61 = load i32, ptr @hf_rdm_pd_preset_info_maximum_start_up_delay_time_supported, align 4
  %62 = load ptr, ptr %5, align 8
  call void @rdm_proto_tree_add_numeric_item(ptr noundef %60, i32 noundef %61, ptr noundef %62, ptr noundef %6, i8 noundef zeroext 2)
  %63 = load ptr, ptr %7, align 8
  %64 = load i32, ptr @hf_rdm_pd_preset_info_minimum_start_up_hold_time_supported, align 4
  %65 = load ptr, ptr %5, align 8
  call void @rdm_proto_tree_add_numeric_item(ptr noundef %63, i32 noundef %64, ptr noundef %65, ptr noundef %6, i8 noundef zeroext 2)
  %66 = load ptr, ptr %7, align 8
  %67 = load i32, ptr @hf_rdm_pd_preset_info_maximum_start_up_hold_time_supported, align 4
  %68 = load ptr, ptr %5, align 8
  call void @rdm_proto_tree_add_numeric_item(ptr noundef %66, i32 noundef %67, ptr noundef %68, ptr noundef %6, i8 noundef zeroext 2)
  br label %69

69:                                               ; preds = %4, %11
  %70 = load i32, ptr %6, align 4
  ret i32 %70
}