; Function Attrs: null_pointer_is_valid sspstrong uwtable
define internal fastcc range(i32 23, 56) i32 @dissect_rdm_pd_preset_info(ptr noundef %0, ptr noundef %1, i8 noundef zeroext %2) unnamed_addr #1 {
  %cond = icmp eq i8 %2, 33
  br i1 %cond, label %4, label %43

4:                                                ; preds = %3
  %5 = load i32, ptr @hf_rdm_pd_preset_info_level_field_supported, align 4
  %6 = tail call ptr @proto_tree_add_item(ptr noundef %1, i32 noundef %5, ptr noundef %0, i32 noundef 23, i32 noundef 1, i32 noundef 0)
  %7 = load i32, ptr @hf_rdm_pd_preset_info_preset_sequence_supported, align 4
  %8 = tail call ptr @proto_tree_add_item(ptr noundef %1, i32 noundef %7, ptr noundef %0, i32 noundef 24, i32 noundef 1, i32 noundef 0)
  %9 = load i32, ptr @hf_rdm_pd_preset_info_split_times_supported, align 4
  %10 = tail call ptr @proto_tree_add_item(ptr noundef %1, i32 noundef %9, ptr noundef %0, i32 noundef 25, i32 noundef 1, i32 noundef 0)
  %11 = load i32, ptr @hf_rdm_pd_preset_info_dmx_fail_infinite_delay_time_supported, align 4
  %12 = tail call ptr @proto_tree_add_item(ptr noundef %1, i32 noundef %11, ptr noundef %0, i32 noundef 26, i32 noundef 1, i32 noundef 0)
  %13 = load i32, ptr @hf_rdm_pd_preset_info_dmx_fail_infinite_hold_time_supported, align 4
  %14 = tail call ptr @proto_tree_add_item(ptr noundef %1, i32 noundef %13, ptr noundef %0, i32 noundef 27, i32 noundef 1, i32 noundef 0)
  %15 = load i32, ptr @hf_rdm_pd_preset_info_start_up_infinite_hold_time_supported, align 4
  %16 = tail call ptr @proto_tree_add_item(ptr noundef %1, i32 noundef %15, ptr noundef %0, i32 noundef 28, i32 noundef 1, i32 noundef 0)
  %17 = load i32, ptr @hf_rdm_pd_preset_info_maximum_scene_number, align 4
  %18 = tail call ptr @proto_tree_add_item(ptr noundef %1, i32 noundef %17, ptr noundef %0, i32 noundef 29, i32 noundef 2, i32 noundef 0)
  %19 = load i32, ptr @hf_rdm_pd_preset_info_minimum_preset_fade_time_supported, align 4
  %20 = tail call ptr @proto_tree_add_item(ptr noundef %1, i32 noundef %19, ptr noundef %0, i32 noundef 31, i32 noundef 2, i32 noundef 0)
  %21 = load i32, ptr @hf_rdm_pd_preset_info_maximum_preset_fade_time_supported, align 4
  %22 = tail call ptr @proto_tree_add_item(ptr noundef %1, i32 noundef %21, ptr noundef %0, i32 noundef 33, i32 noundef 2, i32 noundef 0)
  %23 = load i32, ptr @hf_rdm_pd_preset_info_minimum_preset_wait_time_supported, align 4
  %24 = tail call ptr @proto_tree_add_item(ptr noundef %1, i32 noundef %23, ptr noundef %0, i32 noundef 35, i32 noundef 2, i32 noundef 0)
  %25 = load i32, ptr @hf_rdm_pd_preset_info_maximum_preset_wait_time_supported, align 4
  %26 = tail call ptr @proto_tree_add_item(ptr noundef %1, i32 noundef %25, ptr noundef %0, i32 noundef 37, i32 noundef 2, i32 noundef 0)
  %27 = load i32, ptr @hf_rdm_pd_preset_info_minimum_dmx_fail_delay_time_supported, align 4
  %28 = tail call ptr @proto_tree_add_item(ptr noundef %1, i32 noundef %27, ptr noundef %0, i32 noundef 39, i32 noundef 2, i32 noundef 0)
  %29 = load i32, ptr @hf_rdm_pd_preset_info_maximum_dmx_fail_delay_time_supported, align 4
  %30 = tail call ptr @proto_tree_add_item(ptr noundef %1, i32 noundef %29, ptr noundef %0, i32 noundef 41, i32 noundef 2, i32 noundef 0)
  %31 = load i32, ptr @hf_rdm_pd_preset_info_minimum_dmx_fail_hold_time_supported, align 4
  %32 = tail call ptr @proto_tree_add_item(ptr noundef %1, i32 noundef %31, ptr noundef %0, i32 noundef 43, i32 noundef 2, i32 noundef 0)
  %33 = load i32, ptr @hf_rdm_pd_preset_info_maximum_dmx_fail_hold_time_supported, align 4
  %34 = tail call ptr @proto_tree_add_item(ptr noundef %1, i32 noundef %33, ptr noundef %0, i32 noundef 45, i32 noundef 2, i32 noundef 0)
  %35 = load i32, ptr @hf_rdm_pd_preset_info_minimum_start_up_delay_time_supported, align 4
  %36 = tail call ptr @proto_tree_add_item(ptr noundef %1, i32 noundef %35, ptr noundef %0, i32 noundef 47, i32 noundef 2, i32 noundef 0)
  %37 = load i32, ptr @hf_rdm_pd_preset_info_maximum_start_up_delay_time_supported, align 4
  %38 = tail call ptr @proto_tree_add_item(ptr noundef %1, i32 noundef %37, ptr noundef %0, i32 noundef 49, i32 noundef 2, i32 noundef 0)
  %39 = load i32, ptr @hf_rdm_pd_preset_info_minimum_start_up_hold_time_supported, align 4
  %40 = tail call ptr @proto_tree_add_item(ptr noundef %1, i32 noundef %39, ptr noundef %0, i32 noundef 51, i32 noundef 2, i32 noundef 0)
  %41 = load i32, ptr @hf_rdm_pd_preset_info_maximum_start_up_hold_time_supported, align 4
  %42 = tail call ptr @proto_tree_add_item(ptr noundef %1, i32 noundef %41, ptr noundef %0, i32 noundef 53, i32 noundef 2, i32 noundef 0)
  br label %43

43:                                               ; preds = %3, %4
  %.0 = phi i32 [ 55, %4 ], [ 23, %3 ]
  ret i32 %.0
}